target datalayout = "e-m:e-p270:32:32-p271:32:32-p272:64:64-i64:64-i128:128-f80:128-n8:16:32:64-S128"
target triple = "x86_64-pc-linux-gnu"

%struct.AVRational = type { i32, i32 }
%struct.AVDVProfile = type { i32, i32, i32, i32, i32, %struct.AVRational, i32, i32, i32, [2 x %struct.AVRational], i32, i32, ptr, i32, [3 x i32], [5 x i32], ptr }
%struct.AVCodecContext = type { ptr, i32, i32, ptr, i32, i32, ptr, ptr, ptr, i64, i32, i32, ptr, i32, %struct.AVRational, %struct.AVRational, %struct.AVRational, i32, i32, i32, i32, i32, %struct.AVRational, i32, i32, i32, i32, i32, i32, i32, i32, i32, i32, i32, ptr, ptr, i32, float, float, float, float, float, float, float, float, float, i32, i32, i32, i32, i32, i32, i32, i32, i32, i32, i32, i32, ptr, ptr, ptr, i32, i32, i32, i32, i32, i32, i32, i32, i32, i32, %struct.AVChannelLayout, i32, i32, i32, i32, i32, i32, i32, i32, ptr, i32, i32, i32, float, float, i32, i32, i32, i32, i32, ptr, i64, i64, float, float, i32, i32, ptr, ptr, i32, i32, i32, i32, i32, ptr, ptr, ptr, ptr, i32, i32, [8 x i64], i32, i32, i32, i32, i32, i32, i32, ptr, ptr, i32, i32, i32, i32, i32, i32, i32, i32, i32, i32, ptr, ptr, i32, i32, ptr, ptr, ptr, ptr, i32, i32, i64, i32, i32, i64, ptr, i64, ptr, i32, ptr, i32 }
%struct.AVChannelLayout = type { i32, i32, %union.anon, ptr }
%union.anon = type { i64 }

@.str.1 = private unnamed_addr constant [5 x i8] c"SL25\00", align 1

; Function Attrs: nounwind uwtable
define ptr @ff_dv_frame_profile(ptr noundef %0, ptr noundef %1, ptr noundef %2, i32 noundef %3) #0 {
  %5 = alloca ptr, align 8
  %6 = alloca ptr, align 8
  %7 = alloca ptr, align 8
  %8 = alloca ptr, align 8
  %9 = alloca i32, align 4
  %10 = alloca i32, align 4
  %11 = alloca i32, align 4
  %12 = alloca i32, align 4
  %13 = alloca i32, align 4
  %14 = alloca i32, align 4
  store ptr %0, ptr %6, align 8, !tbaa !22
  store ptr %1, ptr %7, align 8, !tbaa !10
  store ptr %2, ptr %8, align 8, !tbaa !24
  store i32 %3, ptr %9, align 4, !tbaa !8
  call void @llvm.lifetime.start.p0(i64 4, ptr %10) #4
  call void @llvm.lifetime.start.p0(i64 4, ptr %11) #4
  call void @llvm.lifetime.start.p0(i64 4, ptr %12) #4
  call void @llvm.lifetime.start.p0(i64 4, ptr %13) #4
  %15 = load i32, ptr %9, align 4, !tbaa !8
  %16 = icmp ult i32 %15, 480
  br i1 %16, label %17, label %18

17:                                               ; preds = %4
  store ptr null, ptr %5, align 8
  store i32 1, ptr %14, align 4
  br label %145

18:                                               ; preds = %4
  %19 = load ptr, ptr %8, align 8, !tbaa !24
  %20 = getelementptr inbounds i8, ptr %19, i64 3
  %21 = load i8, ptr %20, align 1, !tbaa !25
  %22 = zext i8 %21 to i32
  %23 = and i32 %22, 128
  %24 = ashr i32 %23, 7
  store i32 %24, ptr %11, align 4, !tbaa !8
  %25 = load ptr, ptr %8, align 8, !tbaa !24
  %26 = getelementptr inbounds i8, ptr %25, i64 451
  %27 = load i8, ptr %26, align 1, !tbaa !25
  %28 = zext i8 %27 to i32
  %29 = and i32 %28, 31
  store i32 %29, ptr %12, align 4, !tbaa !8
  %30 = load ptr, ptr %8, align 8, !tbaa !24
  %31 = getelementptr inbounds i8, ptr %30, i64 451
  %32 = load i8, ptr %31, align 1, !tbaa !25
  %33 = zext i8 %32 to i32
  %34 = and i32 %33, 32
  %35 = icmp ne i32 %34, 0
  %36 = xor i1 %35, true
  %37 = xor i1 %36, true
  %38 = zext i1 %37 to i32
  store i32 %38, ptr %13, align 4, !tbaa !8
  %39 = load i32, ptr %11, align 4, !tbaa !8
  %40 = icmp eq i32 %39, 1
  br i1 %40, label %41, label %51

41:                                               ; preds = %18
  %42 = load i32, ptr %12, align 4, !tbaa !8
  %43 = icmp eq i32 %42, 0
  br i1 %43, label %44, label %51

44:                                               ; preds = %41
  %45 = load ptr, ptr %8, align 8, !tbaa !24
  %46 = getelementptr inbounds i8, ptr %45, i64 4
  %47 = load i8, ptr %46, align 1, !tbaa !25
  %48 = zext i8 %47 to i32
  %49 = and i32 %48, 7
  %50 = icmp ne i32 %49, 0
  br i1 %50, label %73, label %51

51:                                               ; preds = %44, %41, %18
  %52 = load i32, ptr %12, align 4, !tbaa !8
  %53 = icmp eq i32 %52, 31
  br i1 %53, label %54, label %74

54:                                               ; preds = %51
  %55 = load ptr, ptr %6, align 8, !tbaa !22
  %56 = icmp ne ptr %55, null
  br i1 %56, label %57, label %74

57:                                               ; preds = %54
  %58 = load ptr, ptr %6, align 8, !tbaa !22
  %59 = getelementptr inbounds nuw %struct.AVCodecContext, ptr %58, i32 0, i32 5
  %60 = load i32, ptr %59, align 4, !tbaa !26
  %61 = load i32, ptr @.str.1, align 1, !tbaa !25
  %62 = icmp eq i32 %60, %61
  br i1 %62, label %63, label %74

63:                                               ; preds = %57
  %64 = load ptr, ptr %6, align 8, !tbaa !22
  %65 = getelementptr inbounds nuw %struct.AVCodecContext, ptr %64, i32 0, i32 20
  %66 = load i32, ptr %65, align 8, !tbaa !43
  %67 = icmp eq i32 %66, 720
  br i1 %67, label %68, label %74

68:                                               ; preds = %63
  %69 = load ptr, ptr %6, align 8, !tbaa !22
  %70 = getelementptr inbounds nuw %struct.AVCodecContext, ptr %69, i32 0, i32 21
  %71 = load i32, ptr %70, align 4, !tbaa !44
  %72 = icmp eq i32 %71, 576
  br i1 %72, label %73, label %74

73:                                               ; preds = %68, %44
  store ptr getelementptr inbounds ([10 x %struct.AVDVProfile], ptr @dv_profiles, i64 0, i64 2), ptr %5, align 8
  store i32 1, ptr %14, align 4
  br label %145

74:                                               ; preds = %68, %63, %57, %54, %51
  %75 = load i32, ptr %11, align 4, !tbaa !8
  %76 = icmp eq i32 %75, 0
  br i1 %76, label %77, label %87

77:                                               ; preds = %74
  %78 = load i32, ptr %13, align 4, !tbaa !8
  %79 = icmp eq i32 %78, 1
  br i1 %79, label %80, label %87

80:                                               ; preds = %77
  %81 = load i32, ptr %12, align 4, !tbaa !8
  %82 = icmp eq i32 %81, 0
  br i1 %82, label %83, label %87

83:                                               ; preds = %80
  %84 = load i32, ptr %9, align 4, !tbaa !8
  %85 = icmp eq i32 %84, 144000
  br i1 %85, label %86, label %87

86:                                               ; preds = %83
  store ptr getelementptr inbounds ([10 x %struct.AVDVProfile], ptr @dv_profiles, i64 0, i64 1), ptr %5, align 8
  store i32 1, ptr %14, align 4
  br label %145

87:                                               ; preds = %83, %80, %77, %74
  store i32 0, ptr %10, align 4, !tbaa !8
  br label %88

88:                                               ; preds = %113, %87
  %89 = load i32, ptr %10, align 4, !tbaa !8
  %90 = sext i32 %89 to i64
  %91 = icmp ult i64 %90, 10
  br i1 %91, label %92, label %116

92:                                               ; preds = %88
  %93 = load i32, ptr %11, align 4, !tbaa !8
  %94 = load i32, ptr %10, align 4, !tbaa !8
  %95 = sext i32 %94 to i64
  %96 = getelementptr inbounds [10 x %struct.AVDVProfile], ptr @dv_profiles, i64 0, i64 %95
  %97 = getelementptr inbounds nuw %struct.AVDVProfile, ptr %96, i32 0, i32 0
  %98 = load i32, ptr %97, align 8, !tbaa !45
  %99 = icmp eq i32 %93, %98
  br i1 %99, label %100, label %112

100:                                              ; preds = %92
  %101 = load i32, ptr %12, align 4, !tbaa !8
  %102 = load i32, ptr %10, align 4, !tbaa !8
  %103 = sext i32 %102 to i64
  %104 = getelementptr inbounds [10 x %struct.AVDVProfile], ptr @dv_profiles, i64 0, i64 %103
  %105 = getelementptr inbounds nuw %struct.AVDVProfile, ptr %104, i32 0, i32 1
  %106 = load i32, ptr %105, align 4, !tbaa !46
  %107 = icmp eq i32 %101, %106
  br i1 %107, label %108, label %112

108:                                              ; preds = %100
  %109 = load i32, ptr %10, align 4, !tbaa !8
  %110 = sext i32 %109 to i64
  %111 = getelementptr inbounds [10 x %struct.AVDVProfile], ptr @dv_profiles, i64 0, i64 %110
  store ptr %111, ptr %5, align 8
  store i32 1, ptr %14, align 4
  br label %145

112:                                              ; preds = %100, %92
  br label %113

113:                                              ; preds = %112
  %114 = load i32, ptr %10, align 4, !tbaa !8
  %115 = add nsw i32 %114, 1
  store i32 %115, ptr %10, align 4, !tbaa !8
  br label %88, !llvm.loop !47

116:                                              ; preds = %88
  %117 = load ptr, ptr %7, align 8, !tbaa !10
  %118 = icmp ne ptr %117, null
  br i1 %118, label %119, label %127

119:                                              ; preds = %116
  %120 = load i32, ptr %9, align 4, !tbaa !8
  %121 = load ptr, ptr %7, align 8, !tbaa !10
  %122 = getelementptr inbounds nuw %struct.AVDVProfile, ptr %121, i32 0, i32 2
  %123 = load i32, ptr %122, align 8, !tbaa !48
  %124 = icmp eq i32 %120, %123
  br i1 %124, label %125, label %127

125:                                              ; preds = %119
  %126 = load ptr, ptr %7, align 8, !tbaa !10
  store ptr %126, ptr %5, align 8
  store i32 1, ptr %14, align 4
  br label %145

127:                                              ; preds = %119, %116
  %128 = load ptr, ptr %8, align 8, !tbaa !24
  %129 = getelementptr inbounds i8, ptr %128, i64 3
  %130 = load i8, ptr %129, align 1, !tbaa !25
  %131 = zext i8 %130 to i32
  %132 = and i32 %131, 127
  %133 = icmp eq i32 %132, 63
  br i1 %133, label %134, label %144

134:                                              ; preds = %127
  %135 = load ptr, ptr %8, align 8, !tbaa !24
  %136 = getelementptr inbounds i8, ptr %135, i64 451
  %137 = load i8, ptr %136, align 1, !tbaa !25
  %138 = zext i8 %137 to i32
  %139 = icmp eq i32 %138, 255
  br i1 %139, label %140, label %144

140:                                              ; preds = %134
  %141 = load i32, ptr %11, align 4, !tbaa !8
  %142 = sext i32 %141 to i64
  %143 = getelementptr inbounds [10 x %struct.AVDVProfile], ptr @dv_profiles, i64 0, i64 %142
  store ptr %143, ptr %5, align 8
  store i32 1, ptr %14, align 4
  br label %145

144:                                              ; preds = %134, %127
  store ptr null, ptr %5, align 8
  store i32 1, ptr %14, align 4
  br label %145

145:                                              ; preds = %144, %140, %125, %108, %86, %73, %17
  call void @llvm.lifetime.end.p0(i64 4, ptr %13) #4
  call void @llvm.lifetime.end.p0(i64 4, ptr %12) #4
  call void @llvm.lifetime.end.p0(i64 4, ptr %11) #4
  call void @llvm.lifetime.end.p0(i64 4, ptr %10) #4
  %146 = load ptr, ptr %5, align 8
  ret ptr %146
}