; Function Attrs: nofree norecurse nosync nounwind memory(argmem: read) uwtable
define ptr @ff_dv_frame_profile(ptr noundef readonly captures(address_is_null) %0, ptr noundef readonly captures(address_is_null, ret: address, provenance) %1, ptr noundef readonly captures(none) %2, i32 noundef %3) local_unnamed_addr #2 {
  %5 = icmp ult i32 %3, 480
  br i1 %5, label %.loopexit, label %6

6:                                                ; preds = %4
  %7 = getelementptr inbounds nuw i8, ptr %2, i64 3
  %8 = load i8, ptr %7, align 1, !tbaa !18
  %9 = lshr i8 %8, 7
  %10 = zext nneg i8 %9 to i32
  %11 = getelementptr inbounds nuw i8, ptr %2, i64 451
  %12 = load i8, ptr %11, align 1, !tbaa !18
  %13 = zext i8 %12 to i32
  %14 = and i32 %13, 31
  %15 = icmp slt i8 %8, 0
  %16 = icmp eq i32 %14, 0
  %or.cond = select i1 %15, i1 %16, i1 false
  br i1 %or.cond, label %17, label %21

17:                                               ; preds = %6
  %18 = getelementptr inbounds nuw i8, ptr %2, i64 4
  %19 = load i8, ptr %18, align 1, !tbaa !18
  %20 = and i8 %19, 7
  %.not = icmp eq i8 %20, 0
  br i1 %.not, label %.preheader.preheader, label %.loopexit

21:                                               ; preds = %6
  %22 = icmp eq i32 %14, 31
  %23 = icmp ne ptr %0, null
  %or.cond3 = and i1 %23, %22
  br i1 %or.cond3, label %24, label %.thread

24:                                               ; preds = %21
  %25 = getelementptr inbounds nuw i8, ptr %0, i64 28
  %26 = load i32, ptr %25, align 4, !tbaa !19
  %27 = icmp eq i32 %26, 892488787
  br i1 %27, label %28, label %.thread

28:                                               ; preds = %24
  %29 = getelementptr inbounds nuw i8, ptr %0, i64 120
  %30 = load i32, ptr %29, align 8, !tbaa !36
  %31 = icmp eq i32 %30, 720
  br i1 %31, label %32, label %.thread

32:                                               ; preds = %28
  %33 = getelementptr inbounds nuw i8, ptr %0, i64 124
  %34 = load i32, ptr %33, align 4, !tbaa !37
  %35 = icmp eq i32 %34, 576
  br i1 %35, label %.loopexit, label %.thread

.thread:                                          ; preds = %32, %28, %24, %21
  %36 = icmp sgt i8 %8, -1
  %37 = and i32 %13, 63
  %38 = icmp eq i32 %37, 32
  %or.cond7 = select i1 %36, i1 %38, i1 false
  %39 = icmp eq i32 %3, 144000
  %or.cond9 = and i1 %39, %or.cond7
  br i1 %or.cond9, label %.loopexit, label %.preheader.preheader

.preheader.preheader:                             ; preds = %17, %.thread
  br label %.preheader

.preheader:                                       ; preds = %.preheader.preheader, %47
  %indvars.iv = phi i64 [ %indvars.iv.next, %47 ], [ 0, %.preheader.preheader ]
  %40 = getelementptr inbounds nuw [10 x %struct.AVDVProfile], ptr @dv_profiles, i64 0, i64 %indvars.iv
  %41 = load i32, ptr %40, align 8, !tbaa !38
  %42 = icmp eq i32 %41, %10
  br i1 %42, label %43, label %47

43:                                               ; preds = %.preheader
  %44 = getelementptr inbounds nuw i8, ptr %40, i64 4
  %45 = load i32, ptr %44, align 4, !tbaa !39
  %46 = icmp eq i32 %14, %45
  br i1 %46, label %.loopexit, label %47

47:                                               ; preds = %.preheader, %43
  %indvars.iv.next = add nuw nsw i64 %indvars.iv, 1
  %exitcond.not = icmp eq i64 %indvars.iv.next, 10
  br i1 %exitcond.not, label %48, label %.preheader, !llvm.loop !40

48:                                               ; preds = %47
  %.not44 = icmp eq ptr %1, null
  br i1 %.not44, label %53, label %49

49:                                               ; preds = %48
  %50 = getelementptr inbounds nuw i8, ptr %1, i64 8
  %51 = load i32, ptr %50, align 8, !tbaa !41
  %52 = icmp eq i32 %3, %51
  br i1 %52, label %.loopexit, label %53

53:                                               ; preds = %49, %48
  %54 = and i8 %8, 127
  %55 = icmp eq i8 %54, 63
  %56 = icmp eq i8 %12, -1
  %or.cond46 = select i1 %55, i1 %56, i1 false
  br i1 %or.cond46, label %57, label %.loopexit

57:                                               ; preds = %53
  %58 = zext nneg i8 %9 to i64
  %59 = getelementptr inbounds nuw [10 x %struct.AVDVProfile], ptr @dv_profiles, i64 0, i64 %58
  br label %.loopexit

.loopexit:                                        ; preds = %43, %53, %49, %.thread, %17, %32, %4, %57
  %.0 = phi ptr [ %59, %57 ], [ null, %4 ], [ getelementptr inbounds nuw (i8, ptr @dv_profiles, i64 240), %32 ], [ getelementptr inbounds nuw (i8, ptr @dv_profiles, i64 240), %17 ], [ getelementptr inbounds nuw (i8, ptr @dv_profiles, i64 120), %.thread ], [ %1, %49 ], [ null, %53 ], [ %40, %43 ]
  ret ptr %.0
}